(dp1
S'output'
p2
S"<type 'exceptions.AttributeError'> 'Rows' object has no attribute 'first_name'"
p3
sS'layer'
p4
S'C:\\Users\\Tekun\\Documents\\UCSC\\CMPS183\\web2py_src\\web2py\\applications\\welcome\\controllers/api.py'
p5
sS'code'
p6
S'<code object <module> at 000000000B30EA30, file "C:\\Users\\Tekun\\Documents\\UCSC\\CMPS183\\web2py_src\\web2py\\applications\\welcome\\controllers/api.py", line 1>'
p7
sS'snapshot'
p8
(dp9
S'exception'
p10
(dp11
S'__getslice__'
p12
S"<method-wrapper '__getslice__' of exceptions.AttributeError object>"
p13
sS'__str__'
p14
S"<method-wrapper '__str__' of exceptions.AttributeError object>"
p15
sS'__reduce__'
p16
S'<built-in method __reduce__ of exceptions.AttributeError object>'
p17
sS'__dict__'
p18
S'{}'
p19
sS'message'
p20
S'"\'Rows\' object has no attribute \'first_name\'"'
p21
sS'__sizeof__'
p22
S'<built-in method __sizeof__ of exceptions.AttributeError object>'
p23
sS'__init__'
p24
S"<method-wrapper '__init__' of exceptions.AttributeError object>"
p25
sS'__setattr__'
p26
S"<method-wrapper '__setattr__' of exceptions.AttributeError object>"
p27
sS'__reduce_ex__'
p28
S'<built-in method __reduce_ex__ of exceptions.AttributeError object>'
p29
sS'__new__'
p30
S'<built-in method __new__ of type object>'
p31
sS'__format__'
p32
S'<built-in method __format__ of exceptions.AttributeError object>'
p33
sS'__class__'
p34
S"<type 'exceptions.AttributeError'>"
p35
sS'__doc__'
p36
S"'Attribute not found.'"
p37
sS'__getitem__'
p38
S"<method-wrapper '__getitem__' of exceptions.AttributeError object>"
p39
sS'__setstate__'
p40
S'<built-in method __setstate__ of exceptions.AttributeError object>'
p41
sS'__getattribute__'
p42
S"<method-wrapper '__getattribute__' of exceptions.AttributeError object>"
p43
sS'args'
p44
S'("\'Rows\' object has no attribute \'first_name\'",)'
p45
sS'__subclasshook__'
p46
S'<built-in method __subclasshook__ of type object>'
p47
sS'__unicode__'
p48
S'<built-in method __unicode__ of exceptions.AttributeError object>'
p49
sS'__delattr__'
p50
S"<method-wrapper '__delattr__' of exceptions.AttributeError object>"
p51
sS'__repr__'
p52
S"<method-wrapper '__repr__' of exceptions.AttributeError object>"
p53
sS'__hash__'
p54
S"<method-wrapper '__hash__' of exceptions.AttributeError object>"
p55
ssS'evalue'
p56
S"'Rows' object has no attribute 'first_name'"
p57
sS'request'
p58
cgluon.html
XML_unpickle
p59
(S's![\x00\x00<div><table><tr><td style="font-weight:bold;vertical-align:top;">ajax</td><td style="vertical-align:top;">:</td><td><div>True</div></td></tr><tr><td style="font-weight:bold;vertical-align:top;">application</td><td style="vertical-align:top;">:</td><td><div>welcome</div></td></tr><tr><td style="font-weight:bold;vertical-align:top;">args</td><td style="vertical-align:top;">:</td><td><div><table></table></div></td></tr><tr><td style="font-weight:bold;vertical-align:top;">cid</td><td style="vertical-align:top;">:</td><td><div>None</div></td></tr><tr><td style="font-weight:bold;vertical-align:top;">client</td><td style="vertical-align:top;">:</td><td><div>127.0.0.1</div></td></tr><tr><td style="font-weight:bold;vertical-align:top;">controller</td><td style="vertical-align:top;">:</td><td><div>api</div></td></tr><tr><td style="font-weight:bold;vertical-align:top;">cookies</td><td style="vertical-align:top;">:</td><td><div><table><tr><td style="font-weight:bold;vertical-align:top;">session_id_admin</td><td style="vertical-align:top;">:</td><td><div>127.0.0.1-efd0a33f-2763-4369-84dc-5d098699230a<table><tr><td style="font-weight:bold;vertical-align:top;">comment</td><td style="vertical-align:top;">:</td><td><div></div></td></tr><tr><td style="font-weight:bold;vertical-align:top;">domain</td><td style="vertical-align:top;">:</td><td><div></div></td></tr><tr><td style="font-weight:bold;vertical-align:top;">expires</td><td style="vertical-align:top;">:</td><td><div></div></td></tr><tr><td style="font-weight:bold;vertical-align:top;">httponly</td><td style="vertical-align:top;">:</td><td><div></div></td></tr><tr><td style="font-weight:bold;vertical-align:top;">max-age</td><td style="vertical-align:top;">:</td><td><div></div></td></tr><tr><td style="font-weight:bold;vertical-align:top;">path</td><td style="vertical-align:top;">:</td><td><div></div></td></tr><tr><td style="font-weight:bold;vertical-align:top;">secure</td><td style="vertical-align:top;">:</td><td><div></div></td></tr><tr><td style="font-weight:bold;vertical-align:top;">version</td><td style="vertical-align:top;">:</td><td><div></div></td></tr></table></div></td></tr><tr><td style="font-weight:bold;vertical-align:top;">session_id_welcome</td><td style="vertical-align:top;">:</td><td><div>127.0.0.1-ae9d5498-ad5f-4df3-9e40-26cc51fd0f17<table><tr><td style="font-weight:bold;vertical-align:top;">comment</td><td style="vertical-align:top;">:</td><td><div></div></td></tr><tr><td style="font-weight:bold;vertical-align:top;">domain</td><td style="vertical-align:top;">:</td><td><div></div></td></tr><tr><td style="font-weight:bold;vertical-align:top;">expires</td><td style="vertical-align:top;">:</td><td><div></div></td></tr><tr><td style="font-weight:bold;vertical-align:top;">httponly</td><td style="vertical-align:top;">:</td><td><div></div></td></tr><tr><td style="font-weight:bold;vertical-align:top;">max-age</td><td style="vertical-align:top;">:</td><td><div></div></td></tr><tr><td style="font-weight:bold;vertical-align:top;">path</td><td style="vertical-align:top;">:</td><td><div></div></td></tr><tr><td style="font-weight:bold;vertical-align:top;">secure</td><td style="vertical-align:top;">:</td><td><div></div></td></tr><tr><td style="font-weight:bold;vertical-align:top;">version</td><td style="vertical-align:top;">:</td><td><div></div></td></tr></table></div></td></tr></table></div></td></tr><tr><td style="font-weight:bold;vertical-align:top;">env</td><td style="vertical-align:top;">:</td><td><div><table><tr><td style="font-weight:bold;vertical-align:top;">HTTP_ACCEPT</td><td style="vertical-align:top;">:</td><td><div>application/json, text/javascript, */*; q=0.01</div></td></tr><tr><td style="font-weight:bold;vertical-align:top;">HTTP_ACCEPT_ENCODING</td><td style="vertical-align:top;">:</td><td><div>gzip, deflate, br</div></td></tr><tr><td style="font-weight:bold;vertical-align:top;">HTTP_ACCEPT_LANGUAGE</td><td style="vertical-align:top;">:</td><td><div>en-US,en;q=0.9</div></td></tr><tr><td style="font-weight:bold;vertical-align:top;">HTTP_CONNECTION</td><td style="vertical-align:top;">:</td><td><div>keep-alive</div></td></tr><tr><td style="font-weight:bold;vertical-align:top;">HTTP_COOKIE</td><td style="vertical-align:top;">:</td><td><div>session_id_admin=127.0.0.1-efd0a33f-2763-4369-84dc-5d098699230a; session_id_welcome=127.0.0.1-ae9d5498-ad5f-4df3-9e40-26cc51fd0f17</div></td></tr><tr><td style="font-weight:bold;vertical-align:top;">HTTP_HOST</td><td style="vertical-align:top;">:</td><td><div>127.0.0.1:8001</div></td></tr><tr><td style="font-weight:bold;vertical-align:top;">HTTP_REFERER</td><td style="vertical-align:top;">:</td><td><div>http://127.0.0.1:8001/welcome/default/index</div></td></tr><tr><td style="font-weight:bold;vertical-align:top;">HTTP_USER_AGENT</td><td style="vertical-align:top;">:</td><td><div>Mozilla/5.0 (Windows NT 10.0; Win64; x64) AppleWebKit/537.36 (KHTML, like Gecko) Chrome/70.0.3538.102 Safari/537.36</div></td></tr><tr><td style="font-weight:bold;vertical-align:top;">HTTP_X_REQUESTED_WITH</td><td style="vertical-align:top;">:</td><td><div>XMLHttpRequest</div></td></tr><tr><td style="font-weight:bold;vertical-align:top;">PATH_INFO</td><td style="vertical-align:top;">:</td><td><div>/welcome/api/check_log_in</div></td></tr><tr><td style="font-weight:bold;vertical-align:top;">QUERY_STRING</td><td style="vertical-align:top;">:</td><td><div>login_email=asd&amp;login_password=fasdfas</div></td></tr><tr><td style="font-weight:bold;vertical-align:top;">REMOTE_ADDR</td><td style="vertical-align:top;">:</td><td><div>127.0.0.1</div></td></tr><tr><td style="font-weight:bold;vertical-align:top;">REMOTE_PORT</td><td style="vertical-align:top;">:</td><td><div>63959</div></td></tr><tr><td style="font-weight:bold;vertical-align:top;">REQUEST_METHOD</td><td style="vertical-align:top;">:</td><td><div>GET</div></td></tr><tr><td style="font-weight:bold;vertical-align:top;">SCRIPT_NAME</td><td style="vertical-align:top;">:</td><td><div></div></td></tr><tr><td style="font-weight:bold;vertical-align:top;">SERVER_NAME</td><td style="vertical-align:top;">:</td><td><div>Yasunori</div></td></tr><tr><td style="font-weight:bold;vertical-align:top;">SERVER_PORT</td><td style="vertical-align:top;">:</td><td><div>8001</div></td></tr><tr><td style="font-weight:bold;vertical-align:top;">SERVER_PROTOCOL</td><td style="vertical-align:top;">:</td><td><div>HTTP/1.1</div></td></tr><tr><td style="font-weight:bold;vertical-align:top;">SERVER_SOFTWARE</td><td style="vertical-align:top;">:</td><td><div>Rocket 1.2.6</div></td></tr><tr><td style="font-weight:bold;vertical-align:top;">app_folders</td><td style="vertical-align:top;">:</td><td><div>set([&#x27;C:\\\\Users\\\\Tekun\\\\Documents\\\\UCSC\\\\CMPS183\\\\web2py_src\\\\web2py\\\\applications\\\\admin\\\\&#x27;, &#x27;C:\\\\Users\\\\Tekun\\\\Documents\\\\UCSC\\\\CMPS183\\\\web2py_src\\\\web2py\\\\applications\\\\welcome\\\\&#x27;])</div></td></tr><tr><td style="font-weight:bold;vertical-align:top;">applications_parent</td><td style="vertical-align:top;">:</td><td><div>C:\\Users\\Tekun\\Documents\\UCSC\\CMPS183\\web2py_src\\web2py</div></td></tr><tr><td style="font-weight:bold;vertical-align:top;">cmd_args</td><td style="vertical-align:top;">:</td><td><div><table></table></div></td></tr><tr><td style="font-weight:bold;vertical-align:top;">cmd_options</td><td style="vertical-align:top;">:</td><td><div>&lt;Values at 0x4135848: {&#x27;verbose&#x27;: False, &#x27;ip&#x27;: &#x27;127.0.0.1&#x27;, &#x27;debuglevel&#x27;: 30, &#x27;with_scheduler&#x27;: False, &#x27;shutdown_timeout&#x27;: 5, &#x27;taskbar&#x27;: False, &#x27;with_coverage&#x27;: False, &#x27;pid_filename&#x27;: &#x27;httpserver.pid&#x27;, &#x27;maxthreads&#x27;: None, &#x27;softcron&#x27;: False, &#x27;server_name&#x27;: &#x27;Yasunori&#x27;, &#x27;bpython&#x27;: False, &#x27;nogui&#x27;: False, &#x27;port&#x27;: 8000, &#x27;print_errors&#x27;: False, &#x27;extcron&#x27;: False, &#x27;runcron&#x27;: False, &#x27;run_system_tests&#x27;: False, &#x27;test&#x27;: None, &#x27;folder&#x27;: &#x27;C:\\\\Users\\\\Tekun\\\\Documents\\\\UCSC\\\\CMPS183\\\\web2py_src\\\\web2py&#x27;, &#x27;config&#x27;: &#x27;&#x27;, &#x27;minthreads&#x27;: None, &#x27;shell&#x27;: None, &#x27;run&#x27;: &#x27;&#x27;, &#x27;log_filename&#x27;: &#x27;httpserver.log&#x27;, &#x27;profiler_dir&#x27;: None, &#x27;args&#x27;: [&#x27;&#x27;], &#x27;socket_timeout&#x27;: 5, &#x27;ssl_ca_certificate&#x27;: None, &#x27;scheduler&#x27;: None, &#x27;interfaces&#x27;: None, &#x27;ssl_private_key&#x27;: &#x27;&#x27;, &#x27;gae&#x27;: None, &#x27;password&#x27;: &#x27;******&#x27;, &#x27;request_queue_size&#x27;: 5, &#x27;ssl_certificate&#x27;: &#x27;&#x27;, &#x27;cronjob&#x27;: False, &#x27;numthreads&#x27;: None, &#x27;quiet&#x27;: False, &#x27;import_models&#x27;: False, &#x27;timeout&#x27;: 10, &#x27;plain&#x27;: False, &#x27;nobanner&#x27;: False}&gt;</div></td></tr><tr><td style="font-weight:bold;vertical-align:top;">db_sessions</td><td style="vertical-align:top;">:</td><td><div>set([])</div></td></tr><tr><td style="font-weight:bold;vertical-align:top;">debugging</td><td style="vertical-align:top;">:</td><td><div>False</div></td></tr><tr><td style="font-weight:bold;vertical-align:top;">gluon_parent</td><td style="vertical-align:top;">:</td><td><div>C:\\Users\\Tekun\\Documents\\UCSC\\CMPS183\\web2py_src\\web2py</div></td></tr><tr><td style="font-weight:bold;vertical-align:top;">http_accept</td><td style="vertical-align:top;">:</td><td><div>application/json, text/javascript, */*; q=0.01</div></td></tr><tr><td style="font-weight:bold;vertical-align:top;">http_accept_encoding</td><td style="vertical-align:top;">:</td><td><div>gzip, deflate, br</div></td></tr><tr><td style="font-weight:bold;vertical-align:top;">http_accept_language</td><td style="vertical-align:top;">:</td><td><div>en-US,en;q=0.9</div></td></tr><tr><td style="font-weight:bold;vertical-align:top;">http_connection</td><td style="vertical-align:top;">:</td><td><div>keep-alive</div></td></tr><tr><td style="font-weight:bold;vertical-align:top;">http_cookie</td><td style="vertical-align:top;">:</td><td><div>session_id_admin=127.0.0.1-efd0a33f-2763-4369-84dc-5d098699230a; session_id_welcome=127.0.0.1-ae9d5498-ad5f-4df3-9e40-26cc51fd0f17</div></td></tr><tr><td style="font-weight:bold;vertical-align:top;">http_host</td><td style="vertical-align:top;">:</td><td><div>127.0.0.1:8001</div></td></tr><tr><td style="font-weight:bold;vertical-align:top;">http_referer</td><td style="vertical-align:top;">:</td><td><div>http://127.0.0.1:8001/welcome/default/index</div></td></tr><tr><td style="font-weight:bold;vertical-align:top;">http_user_agent</td><td style="vertical-align:top;">:</td><td><div>Mozilla/5.0 (Windows NT 10.0; Win64; x64) AppleWebKit/537.36 (KHTML, like Gecko) Chrome/70.0.3538.102 Safari/537.36</div></td></tr><tr><td style="font-weight:bold;vertical-align:top;">http_x_requested_with</td><td style="vertical-align:top;">:</td><td><div>XMLHttpRequest</div></td></tr><tr><td style="font-weight:bold;vertical-align:top;">is_jython</td><td style="vertical-align:top;">:</td><td><div>False</div></td></tr><tr><td style="font-weight:bold;vertical-align:top;">is_py2</td><td style="vertical-align:top;">:</td><td><div>True</div></td></tr><tr><td style="font-weight:bold;vertical-align:top;">is_pypy</td><td style="vertical-align:top;">:</td><td><div>False</div></td></tr><tr><td style="font-weight:bold;vertical-align:top;">is_source</td><td style="vertical-align:top;">:</td><td><div>True</div></td></tr><tr><td style="font-weight:bold;vertical-align:top;">local_hosts</td><td style="vertical-align:top;">:</td><td><div><table><tr><td><div>Yasunori.hsd1.ca.comcast.net.</div></td></tr><tr><td><div>::ffff:127.0.0.1</div></td></tr><tr><td><div>::1</div></td></tr><tr><td><div>2601:647:cb02:7260:a1b3:4a1f:bdfc:6ee4</div></td></tr><tr><td><div>fe80::307b:73c:4db8:6119%16</div></td></tr><tr><td><div>2601:647:cb02:7260:307b:73c:4db8:6119</div></td></tr><tr><td><div>Yasunori</div></td></tr><tr><td><div>127.0.0.1</div></td></tr><tr><td><div>192.168.0.45</div></td></tr></table></div></td></tr><tr><td style="font-weight:bold;vertical-align:top;">path_info</td><td style="vertical-align:top;">:</td><td><div>/welcome/api/check_log_in</div></td></tr><tr><td style="font-weight:bold;vertical-align:top;">query_string</td><td style="vertical-align:top;">:</td><td><div>login_email=asd&amp;login_password=fasdfas</div></td></tr><tr><td style="font-weight:bold;vertical-align:top;">remote_addr</td><td style="vertical-align:top;">:</td><td><div>127.0.0.1</div></td></tr><tr><td style="font-weight:bold;vertical-align:top;">remote_port</td><td style="vertical-align:top;">:</td><td><div>63959</div></td></tr><tr><td style="font-weight:bold;vertical-align:top;">request_method</td><td style="vertical-align:top;">:</td><td><div>GET</div></td></tr><tr><td style="font-weight:bold;vertical-align:top;">request_uri</td><td style="vertical-align:top;">:</td><td><div>/welcome/api/check_log_in?login_email=asd&amp;login_password=fasdfas</div></td></tr><tr><td style="font-weight:bold;vertical-align:top;">script_name</td><td style="vertical-align:top;">:</td><td><div></div></td></tr><tr><td style="font-weight:bold;vertical-align:top;">server_name</td><td style="vertical-align:top;">:</td><td><div>Yasunori</div></td></tr><tr><td style="font-weight:bold;vertical-align:top;">server_port</td><td style="vertical-align:top;">:</td><td><div>8001</div></td></tr><tr><td style="font-weight:bold;vertical-align:top;">server_protocol</td><td style="vertical-align:top;">:</td><td><div>HTTP/1.1</div></td></tr><tr><td style="font-weight:bold;vertical-align:top;">server_software</td><td style="vertical-align:top;">:</td><td><div>Rocket 1.2.6</div></td></tr><tr><td style="font-weight:bold;vertical-align:top;">web2py_path</td><td style="vertical-align:top;">:</td><td><div>C:\\Users\\Tekun\\Documents\\UCSC\\CMPS183\\web2py_src\\web2py</div></td></tr><tr><td style="font-weight:bold;vertical-align:top;">web2py_version</td><td style="vertical-align:top;">:</td><td><div>2.17.1-stable+timestamp.2018.08.06.01.02.56</div></td></tr><tr><td style="font-weight:bold;vertical-align:top;">wsgi.errors</td><td style="vertical-align:top;">:</td><td><div>&lt;open file &#x27;&lt;stderr&gt;&#x27;, mode &#x27;w&#x27; at 0x000000000286B150&gt;</div></td></tr><tr><td style="font-weight:bold;vertical-align:top;">wsgi.file_wrapper</td><td style="vertical-align:top;">:</td><td><div>&lt;class wsgiref.util.FileWrapper at 0x00000000040C8048&gt;</div></td></tr><tr><td style="font-weight:bold;vertical-align:top;">wsgi.input</td><td style="vertical-align:top;">:</td><td><div>&lt;socket._fileobject object at 0x0000000005A86A98&gt;</div></td></tr><tr><td style="font-weight:bold;vertical-align:top;">wsgi.multiprocess</td><td style="vertical-align:top;">:</td><td><div>False</div></td></tr><tr><td style="font-weight:bold;vertical-align:top;">wsgi.multithread</td><td style="vertical-align:top;">:</td><td><div>True</div></td></tr><tr><td style="font-weight:bold;vertical-align:top;">wsgi.run_once</td><td style="vertical-align:top;">:</td><td><div>False</div></td></tr><tr><td style="font-weight:bold;vertical-align:top;">wsgi.url_scheme</td><td style="vertical-align:top;">:</td><td><div>http</div></td></tr><tr><td style="font-weight:bold;vertical-align:top;">wsgi.version</td><td style="vertical-align:top;">:</td><td><div><table><tr><td><div>1</div></td></tr><tr><td><div>0</div></td></tr></table></div></td></tr><tr><td style="font-weight:bold;vertical-align:top;">wsgi_errors</td><td style="vertical-align:top;">:</td><td><div>&lt;open file &#x27;&lt;stderr&gt;&#x27;, mode &#x27;w&#x27; at 0x000000000286B150&gt;</div></td></tr><tr><td style="font-weight:bold;vertical-align:top;">wsgi_file_wrapper</td><td style="vertical-align:top;">:</td><td><div>&lt;class wsgiref.util.FileWrapper at 0x00000000040C8048&gt;</div></td></tr><tr><td style="font-weight:bold;vertical-align:top;">wsgi_input</td><td style="vertical-align:top;">:</td><td><div>&lt;socket._fileobject object at 0x0000000005A86A98&gt;</div></td></tr><tr><td style="font-weight:bold;vertical-align:top;">wsgi_multiprocess</td><td style="vertical-align:top;">:</td><td><div>False</div></td></tr><tr><td style="font-weight:bold;vertical-align:top;">wsgi_multithread</td><td style="vertical-align:top;">:</td><td><div>True</div></td></tr><tr><td style="font-weight:bold;vertical-align:top;">wsgi_run_once</td><td style="vertical-align:top;">:</td><td><div>False</div></td></tr><tr><td style="font-weight:bold;vertical-align:top;">wsgi_url_scheme</td><td style="vertical-align:top;">:</td><td><div>http</div></td></tr><tr><td style="font-weight:bold;vertical-align:top;">wsgi_version</td><td style="vertical-align:top;">:</td><td><div><table><tr><td><div>1</div></td></tr><tr><td><div>0</div></td></tr></table></div></td></tr></table></div></td></tr><tr><td style="font-weight:bold;vertical-align:top;">extension</td><td style="vertical-align:top;">:</td><td><div>html</div></td></tr><tr><td style="font-weight:bold;vertical-align:top;">folder</td><td style="vertical-align:top;">:</td><td><div>C:\\Users\\Tekun\\Documents\\UCSC\\CMPS183\\web2py_src\\web2py\\applications\\welcome\\</div></td></tr><tr><td style="font-weight:bold;vertical-align:top;">function</td><td style="vertical-align:top;">:</td><td><div>check_log_in</div></td></tr><tr><td style="font-weight:bold;vertical-align:top;">global_settings</td><td style="vertical-align:top;">:</td><td><div><table><tr><td style="font-weight:bold;vertical-align:top;">app_folders</td><td style="vertical-align:top;">:</td><td><div>set([&#x27;C:\\\\Users\\\\Tekun\\\\Documents\\\\UCSC\\\\CMPS183\\\\web2py_src\\\\web2py\\\\applications\\\\admin\\\\&#x27;, &#x27;C:\\\\Users\\\\Tekun\\\\Documents\\\\UCSC\\\\CMPS183\\\\web2py_src\\\\web2py\\\\applications\\\\welcome\\\\&#x27;])</div></td></tr><tr><td style="font-weight:bold;vertical-align:top;">applications_parent</td><td style="vertical-align:top;">:</td><td><div>C:\\Users\\Tekun\\Documents\\UCSC\\CMPS183\\web2py_src\\web2py</div></td></tr><tr><td style="font-weight:bold;vertical-align:top;">cmd_args</td><td style="vertical-align:top;">:</td><td><div><table></table></div></td></tr><tr><td style="font-weight:bold;vertical-align:top;">cmd_options</td><td style="vertical-align:top;">:</td><td><div>&lt;Values at 0x4135848: {&#x27;verbose&#x27;: False, &#x27;ip&#x27;: &#x27;127.0.0.1&#x27;, &#x27;debuglevel&#x27;: 30, &#x27;with_scheduler&#x27;: False, &#x27;shutdown_timeout&#x27;: 5, &#x27;taskbar&#x27;: False, &#x27;with_coverage&#x27;: False, &#x27;pid_filename&#x27;: &#x27;httpserver.pid&#x27;, &#x27;maxthreads&#x27;: None, &#x27;softcron&#x27;: False, &#x27;server_name&#x27;: &#x27;Yasunori&#x27;, &#x27;bpython&#x27;: False, &#x27;nogui&#x27;: False, &#x27;port&#x27;: 8000, &#x27;print_errors&#x27;: False, &#x27;extcron&#x27;: False, &#x27;runcron&#x27;: False, &#x27;run_system_tests&#x27;: False, &#x27;test&#x27;: None, &#x27;folder&#x27;: &#x27;C:\\\\Users\\\\Tekun\\\\Documents\\\\UCSC\\\\CMPS183\\\\web2py_src\\\\web2py&#x27;, &#x27;config&#x27;: &#x27;&#x27;, &#x27;minthreads&#x27;: None, &#x27;shell&#x27;: None, &#x27;run&#x27;: &#x27;&#x27;, &#x27;log_filename&#x27;: &#x27;httpserver.log&#x27;, &#x27;profiler_dir&#x27;: None, &#x27;args&#x27;: [&#x27;&#x27;], &#x27;socket_timeout&#x27;: 5, &#x27;ssl_ca_certificate&#x27;: None, &#x27;scheduler&#x27;: None, &#x27;interfaces&#x27;: None, &#x27;ssl_private_key&#x27;: &#x27;&#x27;, &#x27;gae&#x27;: None, &#x27;password&#x27;: &#x27;******&#x27;, &#x27;request_queue_size&#x27;: 5, &#x27;ssl_certificate&#x27;: &#x27;&#x27;, &#x27;cronjob&#x27;: False, &#x27;numthreads&#x27;: None, &#x27;quiet&#x27;: False, &#x27;import_models&#x27;: False, &#x27;timeout&#x27;: 10, &#x27;plain&#x27;: False, &#x27;nobanner&#x27;: False}&gt;</div></td></tr><tr><td style="font-weight:bold;vertical-align:top;">db_sessions</td><td style="vertical-align:top;">:</td><td><div>set([])</div></td></tr><tr><td style="font-weight:bold;vertical-align:top;">debugging</td><td style="vertical-align:top;">:</td><td><div>False</div></td></tr><tr><td style="font-weight:bold;vertical-align:top;">gluon_parent</td><td style="vertical-align:top;">:</td><td><div>C:\\Users\\Tekun\\Documents\\UCSC\\CMPS183\\web2py_src\\web2py</div></td></tr><tr><td style="font-weight:bold;vertical-align:top;">is_jython</td><td style="vertical-align:top;">:</td><td><div>False</div></td></tr><tr><td style="font-weight:bold;vertical-align:top;">is_py2</td><td style="vertical-align:top;">:</td><td><div>True</div></td></tr><tr><td style="font-weight:bold;vertical-align:top;">is_pypy</td><td style="vertical-align:top;">:</td><td><div>False</div></td></tr><tr><td style="font-weight:bold;vertical-align:top;">is_source</td><td style="vertical-align:top;">:</td><td><div>True</div></td></tr><tr><td style="font-weight:bold;vertical-align:top;">local_hosts</td><td style="vertical-align:top;">:</td><td><div><table><tr><td><div>Yasunori.hsd1.ca.comcast.net.</div></td></tr><tr><td><div>::ffff:127.0.0.1</div></td></tr><tr><td><div>::1</div></td></tr><tr><td><div>2601:647:cb02:7260:a1b3:4a1f:bdfc:6ee4</div></td></tr><tr><td><div>fe80::307b:73c:4db8:6119%16</div></td></tr><tr><td><div>2601:647:cb02:7260:307b:73c:4db8:6119</div></td></tr><tr><td><div>Yasunori</div></td></tr><tr><td><div>127.0.0.1</div></td></tr><tr><td><div>192.168.0.45</div></td></tr></table></div></td></tr><tr><td style="font-weight:bold;vertical-align:top;">web2py_version</td><td style="vertical-align:top;">:</td><td><div>2.17.1-stable+timestamp.2018.08.06.01.02.56</div></td></tr></table></div></td></tr><tr><td style="font-weight:bold;vertical-align:top;">is_https</td><td style="vertical-align:top;">:</td><td><div>False</div></td></tr><tr><td style="font-weight:bold;vertical-align:top;">is_local</td><td style="vertical-align:top;">:</td><td><div>True</div></td></tr><tr><td style="font-weight:bold;vertical-align:top;">is_restful</td><td style="vertical-align:top;">:</td><td><div>False</div></td></tr><tr><td style="font-weight:bold;vertical-align:top;">is_scheduler</td><td style="vertical-align:top;">:</td><td><div>False</div></td></tr><tr><td style="font-weight:bold;vertical-align:top;">is_shell</td><td style="vertical-align:top;">:</td><td><div>False</div></td></tr><tr><td style="font-weight:bold;vertical-align:top;">method</td><td style="vertical-align:top;">:</td><td><div>GET</div></td></tr><tr><td style="font-weight:bold;vertical-align:top;">now</td><td style="vertical-align:top;">:</td><td><div>datetime.datetime(2018, 11, 19, 18, 28, 34, 413000)</div></td></tr><tr><td style="font-weight:bold;vertical-align:top;">raw_args</td><td style="vertical-align:top;">:</td><td><div></div></td></tr><tr><td style="font-weight:bold;vertical-align:top;">raw_extension</td><td style="vertical-align:top;">:</td><td><div>None</div></td></tr><tr><td style="font-weight:bold;vertical-align:top;">url</td><td style="vertical-align:top;">:</td><td><div>/welcome/api/check_log_in</div></td></tr><tr><td style="font-weight:bold;vertical-align:top;">utcnow</td><td style="vertical-align:top;">:</td><td><div>datetime.datetime(2018, 11, 20, 2, 28, 34, 413000)</div></td></tr><tr><td style="font-weight:bold;vertical-align:top;">wsgi</td><td style="vertical-align:top;">:</td><td><div>&lt;gluon.main.LazyWSGI object at 0x000000000B28E7B8&gt;</div></td></tr></table></div>'
tRp60
sS'frames'
p61
(lp62
(dp63
S'file'
p64
S'C:\\Users\\Tekun\\Documents\\UCSC\\CMPS183\\web2py_src\\web2py\\gluon\\restricted.py'
p65
sS'dump'
p66
(dp67
S'environment'
p68
S"{'A': <class 'gluon.html.A'>, 'ANY_OF': <class 'gluon.validators.ANY_OF'>, 'ASSIGNJS': <function ASSIGNJS>, 'AppConfig': <function AppConfig>, 'Auth': <class 'gluon.tools.Auth'>, 'B': <class 'gluon.html.B'>, 'BEAUTIFY': <class 'gluon.html.BEAUTIFY'>, 'BODY': <class 'gluon.html.BODY'>, 'BR': <class 'gluon.html.BR'>, 'BUTTON': <class 'gluon.html.BUTTON'>, ...}"
p69
sS'ccode'
p70
S'<code object <module> at 000000000B30EA30, file ...applications\\welcome\\controllers/api.py", line 1>'
p71
ssS'lnum'
p72
I219
sS'lines'
p73
(dp74
I214
S'    if environment is None:'
p75
sI215
S'        environment = {}'
p76
sI216
S"    environment['__file__'] = layer"
p77
sI217
S"    environment['__name__'] = '__restricted__'"
p78
sI218
S'    try:'
p79
sI219
S'        exec(ccode, environment)'
p80
sI220
S'    except HTTP:'
p81
sI221
S'        raise'
p82
sI222
S'    except RestrictedError:'
p83
sI223
S'        # do not encapsulate (obfuscate) the original RestrictedError'
p84
ssS'call'
p85
S'(ccode=<code object <module> at 000000000B30EA30, file ...applications\\welcome\\controllers/api.py", line 1>, environment={\'A\': <class \'gluon.html.A\'>, \'ANY_OF\': <class \'gluon.validators.ANY_OF\'>, \'ASSIGNJS\': <function ASSIGNJS>, \'AppConfig\': <function AppConfig>, \'Auth\': <class \'gluon.tools.Auth\'>, \'B\': <class \'gluon.html.B\'>, \'BEAUTIFY\': <class \'gluon.html.BEAUTIFY\'>, \'BODY\': <class \'gluon.html.BODY\'>, \'BR\': <class \'gluon.html.BR\'>, \'BUTTON\': <class \'gluon.html.BUTTON\'>, ...}, layer=r\'C:\\Users\\Tekun\\Documents\\UCSC\\CMPS183\\web2py_src\\web2py\\applications\\welcome\\controllers/api.py\', scode=<code object <module> at 000000000B30EA30, file ...applications\\welcome\\controllers/api.py", line 1>)'
p86
sS'func'
p87
S'restricted'
p88
sa(dp89
g64
S'C:\\Users\\Tekun\\Documents\\UCSC\\CMPS183\\web2py_src\\web2py\\applications\\welcome\\controllers\\api.py'
p90
sg66
(dp91
sg72
I104
sg73
(dp92
I96
S'    # # Store team name'
p93
sI97
S'    # user_info_list[4] = rows.user_info.first_name'
p94
sI98
S''
sI99
S''
sI100
S'    return response.json(dict(user_info_list = user_info_list))'
p95
sI101
S''
sI102
S''
sI93
S'    # user_info_list[2] =  rows.user_info.first_name'
p96
sI94
S'    # # Store class name'
p97
sI95
S'    # user_info_list[3] =  rows.user_info.first_name'
p98
ssg85
S'()'
p99
sg87
S'<module>'
p100
sa(dp101
g64
S'C:\\Users\\Tekun\\Documents\\UCSC\\CMPS183\\web2py_src\\web2py\\gluon\\globals.py'
p102
sg66
(dp103
S'self'
p104
S'undefined'
p105
sS'f'
S'<function check_log_in>'
p106
ssg72
I421
sg73
(dp107
I416
S"        self.flash = ''            # used by the default view layout"
p108
sI417
S'        self.meta = Storage()      # used by web2py_ajax.html'
p109
sI418
S'        self.menu = []             # used by the default view layout'
p110
sI419
S'        self.files = []            # used by web2py_ajax.html'
p111
sI420
S'        self._vars = None'
p112
sI421
S'        self._caller = lambda f: f()'
p113
sI422
S'        self._view_environment = None'
p114
sI423
S'        self._custom_commit = None'
p115
sI424
S'        self._custom_rollback = None'
p116
sI425
S"        self.generic_patterns = ['*']"
p117
ssg85
S'(f=<function check_log_in>)'
p118
sg87
S'<lambda>'
p119
sa(dp120
g64
S'C:\\Users\\Tekun\\Documents\\UCSC\\CMPS183\\web2py_src\\web2py\\applications\\welcome\\controllers\\api.py'
p121
sg66
(dp122
S'rows.user_info'
p123
g105
sS'rows'
p124
S'<Rows (1)>'
p125
sS'user_info_list'
p126
S'[None, None, None, None, None]'
p127
ssg72
I89
sg73
(dp128
I84
S''
sI85
S'    # Only have 5 fields for user information'
p129
sI86
S'    user_info_list = [None] * 5'
p130
sI87
S''
sI88
S'    # Store fire name'
p131
sI89
S'    user_info_list[0] = rows.first_name'
p132
sI90
S'    # Store last name'
p133
sI91
S'    # user_info_list[1] =  rows.user_info.first_name'
p134
sI92
S'    # # Store email'
p135
sI93
S'    # user_info_list[2] =  rows.user_info.first_name'
p136
ssg85
S'()'
p137
sg87
S'check_log_in'
p138
sasS'pyver'
p139
S'Python 2.7.15: C:\\Users\\Tekun\\Anaconda2\\python.exe (prefix: C:\\Users\\Tekun\\Anaconda2)'
p140
sS'session'
p141
g59
(S's:\x01\x00\x00<div><table><tr><td style="font-weight:bold;vertical-align:top;">last_orderby</td><td style="vertical-align:top;">:</td><td><div>None</div></td></tr><tr><td style="font-weight:bold;vertical-align:top;">last_query</td><td style="vertical-align:top;">:</td><td><div>db.user_info.id&gt;0</div></td></tr></table></div>'
tRp142
sS'etype'
p143
S"<type 'exceptions.AttributeError'>"
p144
sS'date'
p145
S'Mon Nov 19 18:28:34 2018'
p146
sS'response'
p147
g59
(S's\xdb=\x00\x00<div><table><tr><td style="font-weight:bold;vertical-align:top;">body</td><td style="vertical-align:top;">:</td><td><div>&lt;cStringIO.StringO object at 0x000000000B28E2D0&gt;</div></td></tr><tr><td style="font-weight:bold;vertical-align:top;">cookies</td><td style="vertical-align:top;">:</td><td><div><table><tr><td style="font-weight:bold;vertical-align:top;">session_id_welcome</td><td style="vertical-align:top;">:</td><td><div>127.0.0.1-ae9d5498-ad5f-4df3-9e40-26cc51fd0f17<table><tr><td style="font-weight:bold;vertical-align:top;">comment</td><td style="vertical-align:top;">:</td><td><div></div></td></tr><tr><td style="font-weight:bold;vertical-align:top;">domain</td><td style="vertical-align:top;">:</td><td><div></div></td></tr><tr><td style="font-weight:bold;vertical-align:top;">expires</td><td style="vertical-align:top;">:</td><td><div></div></td></tr><tr><td style="font-weight:bold;vertical-align:top;">httponly</td><td style="vertical-align:top;">:</td><td><div></div></td></tr><tr><td style="font-weight:bold;vertical-align:top;">max-age</td><td style="vertical-align:top;">:</td><td><div></div></td></tr><tr><td style="font-weight:bold;vertical-align:top;">path</td><td style="vertical-align:top;">:</td><td><div>/</div></td></tr><tr><td style="font-weight:bold;vertical-align:top;">secure</td><td style="vertical-align:top;">:</td><td><div></div></td></tr><tr><td style="font-weight:bold;vertical-align:top;">version</td><td style="vertical-align:top;">:</td><td><div></div></td></tr></table></div></td></tr></table></div></td></tr><tr><td style="font-weight:bold;vertical-align:top;">delimiters</td><td style="vertical-align:top;">:</td><td><div><table><tr><td><div>{{</div></td></tr><tr><td><div>}}</div></td></tr></table></div></td></tr><tr><td style="font-weight:bold;vertical-align:top;">files</td><td style="vertical-align:top;">:</td><td><div><table></table></div></td></tr><tr><td style="font-weight:bold;vertical-align:top;">flash</td><td style="vertical-align:top;">:</td><td><div></div></td></tr><tr><td style="font-weight:bold;vertical-align:top;">form_label_separator</td><td style="vertical-align:top;">:</td><td><div></div></td></tr><tr><td style="font-weight:bold;vertical-align:top;">formstyle</td><td style="vertical-align:top;">:</td><td><div>bootstrap4_inline</div></td></tr><tr><td style="font-weight:bold;vertical-align:top;">generic_patterns</td><td style="vertical-align:top;">:</td><td><div><table><tr><td><div>*</div></td></tr></table></div></td></tr><tr><td style="font-weight:bold;vertical-align:top;">google_analytics_id</td><td style="vertical-align:top;">:</td><td><div>None</div></td></tr><tr><td style="font-weight:bold;vertical-align:top;">headers</td><td style="vertical-align:top;">:</td><td><div><table><tr><td style="font-weight:bold;vertical-align:top;">X-Powered-By</td><td style="vertical-align:top;">:</td><td><div>web2py</div></td></tr></table></div></td></tr><tr><td style="font-weight:bold;vertical-align:top;">menu</td><td style="vertical-align:top;">:</td><td><div><table><tr><td><div><table><tr><td><div>Home</div></td></tr><tr><td><div>False</div></td></tr><tr><td><div>/welcome/default/index</div></td></tr><tr><td><div><table></table></div></td></tr></table></div></td></tr><tr><td><div><table><tr><td><div>My Sites</div></td></tr><tr><td><div>False</div></td></tr><tr><td><div>/admin/default/site</div></td></tr></table></div></td></tr><tr><td><div><table><tr><td><div>This App</div></td></tr><tr><td><div>False</div></td></tr><tr><td><div>#</div></td></tr><tr><td><div><table><tr><td><div><table><tr><td><div>Design</div></td></tr><tr><td><div>False</div></td></tr><tr><td><div>/admin/default/design/welcome</div></td></tr></table></div></td></tr><tr><td><div><table><tr><td><div>Controller</div></td></tr><tr><td><div>False</div></td></tr><tr><td><div>/admin/default/edit/welcome/controllers/api.py</div></td></tr></table></div></td></tr><tr><td><div><table><tr><td><div>View</div></td></tr><tr><td><div>False</div></td></tr><tr><td><div>/admin/default/edit/welcome/views/api/check_log_in.html</div></td></tr></table></div></td></tr><tr><td><div><table><tr><td><div>DB Model</div></td></tr><tr><td><div>False</div></td></tr><tr><td><div>/admin/default/edit/welcome/models/db.py</div></td></tr></table></div></td></tr><tr><td><div><table><tr><td><div>Menu Model</div></td></tr><tr><td><div>False</div></td></tr><tr><td><div>/admin/default/edit/welcome/models/menu.py</div></td></tr></table></div></td></tr><tr><td><div><table><tr><td><div>Config.ini</div></td></tr><tr><td><div>False</div></td></tr><tr><td><div>/admin/default/edit/welcome/private/appconfig.ini</div></td></tr></table></div></td></tr><tr><td><div><table><tr><td><div>Layout</div></td></tr><tr><td><div>False</div></td></tr><tr><td><div>/admin/default/edit/welcome/views/layout.html</div></td></tr></table></div></td></tr><tr><td><div><table><tr><td><div>Stylesheet</div></td></tr><tr><td><div>False</div></td></tr><tr><td><div>/admin/default/edit/welcome/static/css/web2py-bootstrap3.css</div></td></tr></table></div></td></tr><tr><td><div><table><tr><td><div>Database</div></td></tr><tr><td><div>False</div></td></tr><tr><td><div>/welcome/appadmin/index</div></td></tr></table></div></td></tr><tr><td><div><table><tr><td><div>Errors</div></td></tr><tr><td><div>False</div></td></tr><tr><td><div>/admin/default/errors/welcome</div></td></tr></table></div></td></tr><tr><td><div><table><tr><td><div>About</div></td></tr><tr><td><div>False</div></td></tr><tr><td><div>/admin/default/about/welcome</div></td></tr></table></div></td></tr></table></div></td></tr></table></div></td></tr><tr><td><div><table><tr><td><div>web2py.com</div></td></tr><tr><td><div>False</div></td></tr><tr><td><div>#</div></td></tr><tr><td><div><table><tr><td><div><table><tr><td><div>Download</div></td></tr><tr><td><div>False</div></td></tr><tr><td><div>http://www.web2py.com/examples/default/download</div></td></tr></table></div></td></tr><tr><td><div><table><tr><td><div>Support</div></td></tr><tr><td><div>False</div></td></tr><tr><td><div>http://www.web2py.com/examples/default/support</div></td></tr></table></div></td></tr><tr><td><div><table><tr><td><div>Demo</div></td></tr><tr><td><div>False</div></td></tr><tr><td><div>http://web2py.com/demo_admin</div></td></tr></table></div></td></tr><tr><td><div><table><tr><td><div>Quick Examples</div></td></tr><tr><td><div>False</div></td></tr><tr><td><div>http://web2py.com/examples/default/examples</div></td></tr></table></div></td></tr><tr><td><div><table><tr><td><div>FAQ</div></td></tr><tr><td><div>False</div></td></tr><tr><td><div>http://web2py.com/AlterEgo</div></td></tr></table></div></td></tr><tr><td><div><table><tr><td><div>Videos</div></td></tr><tr><td><div>False</div></td></tr><tr><td><div>http://www.web2py.com/examples/default/videos/</div></td></tr></table></div></td></tr><tr><td><div><table><tr><td><div>Free Applications</div></td></tr><tr><td><div>False</div></td></tr><tr><td><div>http://web2py.com/appliances</div></td></tr></table></div></td></tr><tr><td><div><table><tr><td><div>Plugins</div></td></tr><tr><td><div>False</div></td></tr><tr><td><div>http://web2py.com/plugins</div></td></tr></table></div></td></tr><tr><td><div><table><tr><td><div>Recipes</div></td></tr><tr><td><div>False</div></td></tr><tr><td><div>http://web2pyslices.com/</div></td></tr></table></div></td></tr></table></div></td></tr></table></div></td></tr><tr><td><div><table><tr><td><div>Documentation</div></td></tr><tr><td><div>False</div></td></tr><tr><td><div>#</div></td></tr><tr><td><div><table><tr><td><div><table><tr><td><div>Online book</div></td></tr><tr><td><div>False</div></td></tr><tr><td><div>http://www.web2py.com/book</div></td></tr></table></div></td></tr><tr><td><div><table><tr><td><div>Preface</div></td></tr><tr><td><div>False</div></td></tr><tr><td><div>http://www.web2py.com/book/default/chapter/00</div></td></tr></table></div></td></tr><tr><td><div><table><tr><td><div>Introduction</div></td></tr><tr><td><div>False</div></td></tr><tr><td><div>http://www.web2py.com/book/default/chapter/01</div></td></tr></table></div></td></tr><tr><td><div><table><tr><td><div>Python</div></td></tr><tr><td><div>False</div></td></tr><tr><td><div>http://www.web2py.com/book/default/chapter/02</div></td></tr></table></div></td></tr><tr><td><div><table><tr><td><div>Overview</div></td></tr><tr><td><div>False</div></td></tr><tr><td><div>http://www.web2py.com/book/default/chapter/03</div></td></tr></table></div></td></tr><tr><td><div><table><tr><td><div>The Core</div></td></tr><tr><td><div>False</div></td></tr><tr><td><div>http://www.web2py.com/book/default/chapter/04</div></td></tr></table></div></td></tr><tr><td><div><table><tr><td><div>The Views</div></td></tr><tr><td><div>False</div></td></tr><tr><td><div>http://www.web2py.com/book/default/chapter/05</div></td></tr></table></div></td></tr><tr><td><div><table><tr><td><div>Database</div></td></tr><tr><td><div>False</div></td></tr><tr><td><div>http://www.web2py.com/book/default/chapter/06</div></td></tr></table></div></td></tr><tr><td><div><table><tr><td><div>Forms and Validators</div></td></tr><tr><td><div>False</div></td></tr><tr><td><div>http://www.web2py.com/book/default/chapter/07</div></td></tr></table></div></td></tr><tr><td><div><table><tr><td><div>Email and SMS</div></td></tr><tr><td><div>False</div></td></tr><tr><td><div>http://www.web2py.com/book/default/chapter/08</div></td></tr></table></div></td></tr><tr><td><div><table><tr><td><div>Access Control</div></td></tr><tr><td><div>False</div></td></tr><tr><td><div>http://www.web2py.com/book/default/chapter/09</div></td></tr></table></div></td></tr><tr><td><div><table><tr><td><div>Services</div></td></tr><tr><td><div>False</div></td></tr><tr><td><div>http://www.web2py.com/book/default/chapter/10</div></td></tr></table></div></td></tr><tr><td><div><table><tr><td><div>Ajax Recipes</div></td></tr><tr><td><div>False</div></td></tr><tr><td><div>http://www.web2py.com/book/default/chapter/11</div></td></tr></table></div></td></tr><tr><td><div><table><tr><td><div>Components and Plugins</div></td></tr><tr><td><div>False</div></td></tr><tr><td><div>http://www.web2py.com/book/default/chapter/12</div></td></tr></table></div></td></tr><tr><td><div><table><tr><td><div>Deployment Recipes</div></td></tr><tr><td><div>False</div></td></tr><tr><td><div>http://www.web2py.com/book/default/chapter/13</div></td></tr></table></div></td></tr><tr><td><div><table><tr><td><div>Other Recipes</div></td></tr><tr><td><div>False</div></td></tr><tr><td><div>http://www.web2py.com/book/default/chapter/14</div></td></tr></table></div></td></tr><tr><td><div><table><tr><td><div>Helping web2py</div></td></tr><tr><td><div>False</div></td></tr><tr><td><div>http://www.web2py.com/book/default/chapter/15</div></td></tr></table></div></td></tr><tr><td><div><table><tr><td><div>Buy web2py\'s book</div></td></tr><tr><td><div>False</div></td></tr><tr><td><div>http://stores.lulu.com/web2py</div></td></tr></table></div></td></tr></table></div></td></tr></table></div></td></tr><tr><td><div><table><tr><td><div>Community</div></td></tr><tr><td><div>False</div></td></tr><tr><td><div>None</div></td></tr><tr><td><div><table><tr><td><div><table><tr><td><div>Groups</div></td></tr><tr><td><div>False</div></td></tr><tr><td><div>http://www.web2py.com/examples/default/usergroups</div></td></tr></table></div></td></tr><tr><td><div><table><tr><td><div>Twitter</div></td></tr><tr><td><div>False</div></td></tr><tr><td><div>http://twitter.com/web2py</div></td></tr></table></div></td></tr><tr><td><div><table><tr><td><div>Live Chat</div></td></tr><tr><td><div>False</div></td></tr><tr><td><div>http://webchat.freenode.net/?channels=web2py</div></td></tr></table></div></td></tr></table></div></td></tr></table></div></td></tr></table></div></td></tr><tr><td style="font-weight:bold;vertical-align:top;">meta</td><td style="vertical-align:top;">:</td><td><div><table><tr><td style="font-weight:bold;vertical-align:top;">author</td><td style="vertical-align:top;">:</td><td><div>Your Name &lt;you@example.com&gt;</div></td></tr><tr><td style="font-weight:bold;vertical-align:top;">description</td><td style="vertical-align:top;">:</td><td><div>a cool new app</div></td></tr><tr><td style="font-weight:bold;vertical-align:top;">generator</td><td style="vertical-align:top;">:</td><td><div>Web2py Web Framework</div></td></tr><tr><td style="font-weight:bold;vertical-align:top;">keywords</td><td style="vertical-align:top;">:</td><td><div><table><tr><td><div>web2py</div></td></tr><tr><td><div>python</div></td></tr><tr><td><div>framework</div></td></tr></table></div></td></tr></table></div></td></tr><tr><td style="font-weight:bold;vertical-align:top;">models_to_run</td><td style="vertical-align:top;">:</td><td><div><table><tr><td><div>^\\w+\\.py$</div></td></tr><tr><td><div>^api/\\w+\\.py$</div></td></tr><tr><td><div>^api/check_log_in/\\w+\\.py$</div></td></tr></table></div></td></tr><tr><td style="font-weight:bold;vertical-align:top;">postprocessing</td><td style="vertical-align:top;">:</td><td><div><table></table></div></td></tr><tr><td style="font-weight:bold;vertical-align:top;">session_client</td><td style="vertical-align:top;">:</td><td><div>127.0.0.1</div></td></tr><tr><td style="font-weight:bold;vertical-align:top;">session_cookie_compression_level</td><td style="vertical-align:top;">:</td><td><div>None</div></td></tr><tr><td style="font-weight:bold;vertical-align:top;">session_cookie_expires</td><td style="vertical-align:top;">:</td><td><div>None</div></td></tr><tr><td style="font-weight:bold;vertical-align:top;">session_data_name</td><td style="vertical-align:top;">:</td><td><div>session_data_welcome</div></td></tr><tr><td style="font-weight:bold;vertical-align:top;">session_file</td><td style="vertical-align:top;">:</td><td><div>&lt;open file &#x27;C:\\\\Users\\\\Tekun\\\\Documents\\\\UCSC\\\\CMPS183\\\\web2py_src\\\\web2py\\\\applications\\\\welcome\\\\sessions\\\\094\\\\0f3\\\\127.0.0.1-ae9d5498-ad5f-4df3-9e40-26cc51fd0f17&#x27;, mode &#x27;rb+&#x27; at 0x00000000055FCDB0&gt;</div></td></tr><tr><td style="font-weight:bold;vertical-align:top;">session_filename</td><td style="vertical-align:top;">:</td><td><div>C:\\Users\\Tekun\\Documents\\UCSC\\CMPS183\\web2py_src\\web2py\\applications\\welcome\\sessions\\127.0.0.1-ae9d5498-ad5f-4df3-9e40-26cc51fd0f17</div></td></tr><tr><td style="font-weight:bold;vertical-align:top;">session_hash</td><td style="vertical-align:top;">:</td><td><div>aaab3e42ffd34bbb9530335dc3b1ca31</div></td></tr><tr><td style="font-weight:bold;vertical-align:top;">session_id</td><td style="vertical-align:top;">:</td><td><div>127.0.0.1-ae9d5498-ad5f-4df3-9e40-26cc51fd0f17</div></td></tr><tr><td style="font-weight:bold;vertical-align:top;">session_id_name</td><td style="vertical-align:top;">:</td><td><div>session_id_welcome</div></td></tr><tr><td style="font-weight:bold;vertical-align:top;">session_locked</td><td style="vertical-align:top;">:</td><td><div>True</div></td></tr><tr><td style="font-weight:bold;vertical-align:top;">session_masterapp</td><td style="vertical-align:top;">:</td><td><div>welcome</div></td></tr><tr><td style="font-weight:bold;vertical-align:top;">session_new</td><td style="vertical-align:top;">:</td><td><div>False</div></td></tr><tr><td style="font-weight:bold;vertical-align:top;">session_storage_type</td><td style="vertical-align:top;">:</td><td><div>file</div></td></tr><tr><td style="font-weight:bold;vertical-align:top;">show_toolbar</td><td style="vertical-align:top;">:</td><td><div>False</div></td></tr><tr><td style="font-weight:bold;vertical-align:top;">status</td><td style="vertical-align:top;">:</td><td><div>200</div></td></tr><tr><td style="font-weight:bold;vertical-align:top;">view</td><td style="vertical-align:top;">:</td><td><div>api/check_log_in.html</div></td></tr></table></div>'
tRp148
sS'locals'
p149
(dp150
S'username'
p151
S"'asd'"
p152
sS'rows'
p153
S'<Rows (1)>'
p154
sS'password'
p155
S"'fasdfas'"
p156
sS'user_info_list'
p157
S'[None, None, None, None, None]'
p158
sssS'traceback'
p159
S'Traceback (most recent call last):\n  File "C:\\Users\\Tekun\\Documents\\UCSC\\CMPS183\\web2py_src\\web2py\\gluon\\restricted.py", line 219, in restricted\n    exec(ccode, environment)\n  File "C:\\Users\\Tekun\\Documents\\UCSC\\CMPS183\\web2py_src\\web2py\\applications\\welcome\\controllers/api.py", line 104, in <module>\n  File "C:\\Users\\Tekun\\Documents\\UCSC\\CMPS183\\web2py_src\\web2py\\gluon\\globals.py", line 421, in <lambda>\n    self._caller = lambda f: f()\n  File "C:\\Users\\Tekun\\Documents\\UCSC\\CMPS183\\web2py_src\\web2py\\applications\\welcome\\controllers/api.py", line 89, in check_log_in\n    user_info_list[0] = rows.first_name\nAttributeError: \'Rows\' object has no attribute \'first_name\'\n'
p160
s.